; ModuleID = '42/1184.cpp'
source_filename = "42/1184.cpp"
target datalayout = "e-m:e-p270:32:32-p271:32:32-p272:64:64-i64:64-f80:128-n8:16:32:64-S128"
target triple = "x86_64-pc-linux-gnu"

%"class.std::ios_base::Init" = type { i8 }
%"class.std::basic_istream" = type { i32 (...)**, i64, %"class.std::basic_ios" }
%"class.std::basic_ios" = type { %"class.std::ios_base", %"class.std::basic_ostream"*, i8, i8, %"class.std::basic_streambuf"*, %"class.std::ctype"*, %"class.std::num_put"*, %"class.std::num_get"* }
%"class.std::ios_base" = type { i32 (...)**, i64, i64, i32, i32, i32, %"struct.std::ios_base::_Callback_list"*, %"struct.std::ios_base::_Words", [8 x %"struct.std::ios_base::_Words"], i32, %"struct.std::ios_base::_Words"*, %"class.std::locale" }
%"struct.std::ios_base::_Callback_list" = type { %"struct.std::ios_base::_Callback_list"*, void (i32, %"class.std::ios_base"*, i32)*, i32, i32 }
%"struct.std::ios_base::_Words" = type { i8*, i64 }
%"class.std::locale" = type { %"class.std::locale::_Impl"* }
%"class.std::locale::_Impl" = type { i32, %"class.std::locale::facet"**, i64, %"class.std::locale::facet"**, i8** }
%"class.std::locale::facet" = type <{ i32 (...)**, i32, [4 x i8] }>
%"class.std::basic_ostream" = type { i32 (...)**, %"class.std::basic_ios" }
%"class.std::basic_streambuf" = type { i32 (...)**, i8*, i8*, i8*, i8*, i8*, i8*, %"class.std::locale" }
%"class.std::ctype" = type <{ %"class.std::locale::facet.base", [4 x i8], %struct.__locale_struct*, i8, [7 x i8], i32*, i32*, i16*, i8, [256 x i8], [256 x i8], i8, [6 x i8] }>
%"class.std::locale::facet.base" = type <{ i32 (...)**, i32 }>
%struct.__locale_struct = type { [13 x %struct.__locale_data*], i16*, i32*, i32*, [13 x i8*] }
%struct.__locale_data = type opaque
%"class.std::num_put" = type { %"class.std::locale::facet.base", [4 x i8] }
%"class.std::num_get" = type { %"class.std::locale::facet.base", [4 x i8] }

@_ZStL8__ioinit = internal global %"class.std::ios_base::Init" zeroinitializer, align 1
@__dso_handle = external hidden global i8
@_ZSt3cin = external dso_local global %"class.std::basic_istream", align 8
@_ZSt4cout = external dso_local global %"class.std::basic_ostream", align 8
@.str = private unnamed_addr constant [2 x i8] c" \00", align 1
@llvm.global_ctors = appending global [1 x { i32, void ()*, i8* }] [{ i32, void ()*, i8* } { i32 65535, void ()* @_GLOBAL__sub_I_1184.cpp, i8* null }]

; Function Attrs: noinline uwtable
define internal void @__cxx_global_var_init() #0 section ".text.startup" {
  call void @_ZNSt8ios_base4InitC1Ev(%"class.std::ios_base::Init"* @_ZStL8__ioinit)
  %1 = call i32 @__cxa_atexit(void (i8*)* bitcast (void (%"class.std::ios_base::Init"*)* @_ZNSt8ios_base4InitD1Ev to void (i8*)*), i8* getelementptr inbounds (%"class.std::ios_base::Init", %"class.std::ios_base::Init"* @_ZStL8__ioinit, i32 0, i32 0), i8* @__dso_handle) #3
  ret void
}

declare dso_local void @_ZNSt8ios_base4InitC1Ev(%"class.std::ios_base::Init"*) unnamed_addr #1

; Function Attrs: nounwind
declare dso_local void @_ZNSt8ios_base4InitD1Ev(%"class.std::ios_base::Init"*) unnamed_addr #2

; Function Attrs: nounwind
declare dso_local i32 @__cxa_atexit(void (i8*)*, i8*, i8*) #3

; Function Attrs: noinline norecurse uwtable
define dso_local i32 @main() #4 {
  %1 = alloca i32, align 4
  %2 = alloca i32, align 4
  %3 = alloca i32, align 4
  %4 = alloca [100000 x i32], align 16
  %5 = alloca i32, align 4
  %6 = alloca i32, align 4
  %7 = alloca i32, align 4
  store i32 0, i32* %1, align 4
  %8 = call dereferenceable(280) %"class.std::basic_istream"* @_ZNSirsERi(%"class.std::basic_istream"* @_ZSt3cin, i32* dereferenceable(4) %2)
  store i32 0, i32* %3, align 4
  br label %9

9:                                                ; preds = %18, %0
  %10 = load i32, i32* %3, align 4
  %11 = load i32, i32* %2, align 4
  %12 = icmp slt i32 %10, %11
  br i1 %12, label %13, label %21

13:                                               ; preds = %9
  %14 = load i32, i32* %3, align 4
  %15 = sext i32 %14 to i64
  %16 = getelementptr inbounds [100000 x i32], [100000 x i32]* %4, i64 0, i64 %15
  %17 = call dereferenceable(280) %"class.std::basic_istream"* @_ZNSirsERi(%"class.std::basic_istream"* @_ZSt3cin, i32* dereferenceable(4) %16)
  br label %18

18:                                               ; preds = %13
  %19 = load i32, i32* %3, align 4
  %20 = add nsw i32 %19, 1
  store i32 %20, i32* %3, align 4
  br label %9

21:                                               ; preds = %9
  store i32 0, i32* %6, align 4
  %22 = call dereferenceable(280) %"class.std::basic_istream"* @_ZNSirsERi(%"class.std::basic_istream"* @_ZSt3cin, i32* dereferenceable(4) %5)
  store i32 0, i32* %3, align 4
  br label %23

23:                                               ; preds = %63, %21
  %24 = load i32, i32* %3, align 4
  %25 = load i32, i32* %2, align 4
  %26 = load i32, i32* %6, align 4
  %27 = sub nsw i32 %25, %26
  %28 = icmp slt i32 %24, %27
  br i1 %28, label %29, label %64

29:                                               ; preds = %23
  %30 = load i32, i32* %3, align 4
  %31 = sext i32 %30 to i64
  %32 = getelementptr inbounds [100000 x i32], [100000 x i32]* %4, i64 0, i64 %31
  %33 = load i32, i32* %32, align 4
  %34 = load i32, i32* %5, align 4
  %35 = icmp eq i32 %33, %34
  br i1 %35, label %36, label %60

36:                                               ; preds = %29
  %37 = load i32, i32* %3, align 4
  store i32 %37, i32* %7, align 4
  br label %38

38:                                               ; preds = %54, %36
  %39 = load i32, i32* %7, align 4
  %40 = load i32, i32* %2, align 4
  %41 = load i32, i32* %6, align 4
  %42 = sub nsw i32 %40, %41
  %43 = sub nsw i32 %42, 1
  %44 = icmp slt i32 %39, %43
  br i1 %44, label %45, label %57

45:                                               ; preds = %38
  %46 = load i32, i32* %7, align 4
  %47 = add nsw i32 %46, 1
  %48 = sext i32 %47 to i64
  %49 = getelementptr inbounds [100000 x i32], [100000 x i32]* %4, i64 0, i64 %48
  %50 = load i32, i32* %49, align 4
  %51 = load i32, i32* %7, align 4
  %52 = sext i32 %51 to i64
  %53 = getelementptr inbounds [100000 x i32], [100000 x i32]* %4, i64 0, i64 %52
  store i32 %50, i32* %53, align 4
  br label %54

54:                                               ; preds = %45
  %55 = load i32, i32* %7, align 4
  %56 = add nsw i32 %55, 1
  store i32 %56, i32* %7, align 4
  br label %38

57:                                               ; preds = %38
  %58 = load i32, i32* %6, align 4
  %59 = add nsw i32 %58, 1
  store i32 %59, i32* %6, align 4
  br label %63

60:                                               ; preds = %29
  %61 = load i32, i32* %3, align 4
  %62 = add nsw i32 %61, 1
  store i32 %62, i32* %3, align 4
  br label %63

63:                                               ; preds = %60, %57
  br label %23

64:                                               ; preds = %23
  store i32 0, i32* %3, align 4
  br label %65

65:                                               ; preds = %79, %64
  %66 = load i32, i32* %3, align 4
  %67 = load i32, i32* %2, align 4
  %68 = load i32, i32* %6, align 4
  %69 = sub nsw i32 %67, %68
  %70 = sub nsw i32 %69, 1
  %71 = icmp slt i32 %66, %70
  br i1 %71, label %72, label %82

72:                                               ; preds = %65
  %73 = load i32, i32* %3, align 4
  %74 = sext i32 %73 to i64
  %75 = getelementptr inbounds [100000 x i32], [100000 x i32]* %4, i64 0, i64 %74
  %76 = load i32, i32* %75, align 4
  %77 = call dereferenceable(272) %"class.std::basic_ostream"* @_ZNSolsEi(%"class.std::basic_ostream"* @_ZSt4cout, i32 %76)
  %78 = call dereferenceable(272) %"class.std::basic_ostream"* @_ZStlsISt11char_traitsIcEERSt13basic_ostreamIcT_ES5_PKc(%"class.std::basic_ostream"* dereferenceable(272) %77, i8* getelementptr inbounds ([2 x i8], [2 x i8]* @.str, i64 0, i64 0))
  br label %79

79:                                               ; preds = %72
  %80 = load i32, i32* %3, align 4
  %81 = add nsw i32 %80, 1
  store i32 %81, i32* %3, align 4
  br label %65

82:                                               ; preds = %65
  %83 = load i32, i32* %2, align 4
  %84 = load i32, i32* %6, align 4
  %85 = sub nsw i32 %83, %84
  %86 = sub nsw i32 %85, 1
  %87 = sext i32 %86 to i64
  %88 = getelementptr inbounds [100000 x i32], [100000 x i32]* %4, i64 0, i64 %87
  %89 = load i32, i32* %88, align 4
  %90 = call dereferenceable(272) %"class.std::basic_ostream"* @_ZNSolsEi(%"class.std::basic_ostream"* @_ZSt4cout, i32 %89)
  %91 = call dereferenceable(272) %"class.std::basic_ostream"* @_ZNSolsEPFRSoS_E(%"class.std::basic_ostream"* %90, %"class.std::basic_ostream"* (%"class.std::basic_ostream"*)* @_ZSt4endlIcSt11char_traitsIcEERSt13basic_ostreamIT_T0_ES6_)
  ret i32 0
}

declare dso_local dereferenceable(280) %"class.std::basic_istream"* @_ZNSirsERi(%"class.std::basic_istream"*, i32* dereferenceable(4)) #1

declare dso_local dereferenceable(272) %"class.std::basic_ostream"* @_ZStlsISt11char_traitsIcEERSt13basic_ostreamIcT_ES5_PKc(%"class.std::basic_ostream"* dereferenceable(272), i8*) #1

declare dso_local dereferenceable(272) %"class.std::basic_ostream"* @_ZNSolsEi(%"class.std::basic_ostream"*, i32) #1

declare dso_local dereferenceable(272) %"class.std::basic_ostream"* @_ZNSolsEPFRSoS_E(%"class.std::basic_ostream"*, %"class.std::basic_ostream"* (%"class.std::basic_ostream"*)*) #1

declare dso_local dereferenceable(272) %"class.std::basic_ostream"* @_ZSt4endlIcSt11char_traitsIcEERSt13basic_ostreamIT_T0_ES6_(%"class.std::basic_ostream"* dereferenceable(272)) #1

; Function Attrs: noinline uwtable
define internal void @_GLOBAL__sub_I_1184.cpp() #0 section ".text.startup" {
  call void @__cxx_global_var_init()
  ret void
}


!llvm.module.flags = !{!0}
!llvm.ident = !{!1}

!0 = !{i32 1, !"wchar_size", i32 4}
!1 = !{!"clang version 10.0.0-4ubuntu1 "}
